; Function Attrs: nounwind uwtable
define ptr @l_Lean_Elab_Tactic_Conv_evalDelta(ptr noundef %0, ptr noundef %1, ptr noundef %2, ptr noundef %3, ptr noundef %4, ptr noundef %5, ptr noundef %6, ptr noundef %7, ptr noundef %8, ptr noundef %9) local_unnamed_addr #0 {
  %11 = tail call ptr @l_Lean_Syntax_getArg(ptr noundef %0, ptr noundef nonnull inttoptr (i64 3 to ptr)) #3
  %12 = tail call ptr @l_Lean_Syntax_getArgs(ptr noundef %11) #3
  %13 = ptrtoint ptr %11 to i64
  %14 = and i64 %13, 1
  %.not = icmp eq i64 %14, 0
  br i1 %.not, label %15, label %lean_dec.exit

15:                                               ; preds = %10
  %16 = load i32, ptr %11, align 4, !tbaa !4
  %17 = icmp sgt i32 %16, 1
  br i1 %17, label %18, label %20, !prof !9

18:                                               ; preds = %15
  %19 = add nsw i32 %16, -1
  store i32 %19, ptr %11, align 4, !tbaa !4
  br label %lean_dec.exit

20:                                               ; preds = %15
  %.not.i = icmp eq i32 %16, 0
  br i1 %.not.i, label %lean_dec.exit, label %21

21:                                               ; preds = %20
  tail call void @lean_dec_ref_cold(ptr noundef nonnull %11) #3
  br label %lean_dec.exit

lean_dec.exit:                                    ; preds = %21, %20, %18, %10
  %22 = getelementptr i8, ptr %12, i64 8
  %.val = load i64, ptr %22, align 8, !tbaa !14
  tail call void @lean_inc_heartbeat() #3
  %23 = tail call noalias ptr @mi_malloc_small(i64 noundef 16) #3
  %24 = icmp eq ptr %23, null
  br i1 %24, label %25, label %lean_box_usize.exit

25:                                               ; preds = %lean_dec.exit
  tail call void @lean_internal_panic_out_of_memory() #4
  unreachable

lean_box_usize.exit:                              ; preds = %lean_dec.exit
  %26 = getelementptr inbounds nuw i8, ptr %23, i64 4
  store i32 1, ptr %23, align 4, !tbaa !4
  store i32 16, ptr %26, align 4
  %27 = getelementptr inbounds nuw i8, ptr %23, i64 8
  store i64 %.val, ptr %27, align 8, !tbaa !14
  %28 = load ptr, ptr @l_Lean_Elab_Tactic_Conv_evalDelta___boxed__const__1, align 8, !tbaa !10
  tail call void @lean_inc_heartbeat() #3
  %29 = tail call noalias ptr @mi_malloc_small(i64 noundef 48) #3
  %30 = icmp eq ptr %29, null
  br i1 %30, label %31, label %lean_alloc_closure.exit

31:                                               ; preds = %lean_box_usize.exit
  tail call void @lean_internal_panic_out_of_memory() #4
  unreachable

lean_alloc_closure.exit:                          ; preds = %lean_box_usize.exit
  %32 = getelementptr inbounds nuw i8, ptr %29, i64 4
  store i32 1, ptr %29, align 4, !tbaa !4
  store i32 -184549328, ptr %32, align 4
  %33 = getelementptr inbounds nuw i8, ptr %29, i64 8
  store ptr @l_Lean_Elab_Tactic_Conv_evalDelta___lambda__1___boxed, ptr %33, align 8, !tbaa !10
  %34 = getelementptr inbounds nuw i8, ptr %29, i64 16
  store i16 12, ptr %34, align 8, !tbaa !12
  %35 = getelementptr inbounds nuw i8, ptr %29, i64 18
  store i16 3, ptr %35, align 2, !tbaa !12
  %36 = getelementptr inbounds nuw i8, ptr %29, i64 24
  store ptr %23, ptr %36, align 8, !tbaa !10
  %37 = getelementptr inbounds nuw i8, ptr %29, i64 32
  store ptr %28, ptr %37, align 8, !tbaa !10
  %38 = getelementptr inbounds nuw i8, ptr %29, i64 40
  store ptr %12, ptr %38, align 8, !tbaa !10
  %39 = tail call ptr @l_Lean_Elab_Tactic_withMainContext___rarg(ptr noundef nonnull %29, ptr noundef %1, ptr noundef %2, ptr noundef %3, ptr noundef %4, ptr noundef %5, ptr noundef %6, ptr noundef %7, ptr noundef %8, ptr noundef %9) #3
  ret ptr %39
}